
assign1-0:     file format elf64-x86-64


Disassembly of section .init:

0000000000400718 <_init>:
  400718:	f3 0f 1e fa          	endbr64 
  40071c:	48 83 ec 08          	sub    $0x8,%rsp
  400720:	48 c7 c0 40 08 40 00 	mov    $0x400840,%rax
  400727:	48 85 c0             	test   %rax,%rax
  40072a:	74 02                	je     40072e <_init+0x16>
  40072c:	ff d0                	callq  *%rax
  40072e:	48 83 c4 08          	add    $0x8,%rsp
  400732:	c3                   	retq   

Disassembly of section .plt:

0000000000400740 <.plt>:
  400740:	ff 35 c2 18 20 00    	pushq  0x2018c2(%rip)        # 602008 <_GLOBAL_OFFSET_TABLE_+0x8>
  400746:	ff 25 c4 18 20 00    	jmpq   *0x2018c4(%rip)        # 602010 <_GLOBAL_OFFSET_TABLE_+0x10>
  40074c:	0f 1f 40 00          	nopl   0x0(%rax)

0000000000400750 <free@plt>:
  400750:	ff 25 c2 18 20 00    	jmpq   *0x2018c2(%rip)        # 602018 <free@GLIBC_2.2.5>
  400756:	68 00 00 00 00       	pushq  $0x0
  40075b:	e9 e0 ff ff ff       	jmpq   400740 <.plt>

0000000000400760 <putchar@plt>:
  400760:	ff 25 ba 18 20 00    	jmpq   *0x2018ba(%rip)        # 602020 <putchar@GLIBC_2.2.5>
  400766:	68 01 00 00 00       	pushq  $0x1
  40076b:	e9 d0 ff ff ff       	jmpq   400740 <.plt>

0000000000400770 <strncmp@plt>:
  400770:	ff 25 b2 18 20 00    	jmpq   *0x2018b2(%rip)        # 602028 <strncmp@GLIBC_2.2.5>
  400776:	68 02 00 00 00       	pushq  $0x2
  40077b:	e9 c0 ff ff ff       	jmpq   400740 <.plt>

0000000000400780 <printf@plt>:
  400780:	ff 25 aa 18 20 00    	jmpq   *0x2018aa(%rip)        # 602030 <printf@GLIBC_2.2.5>
  400786:	68 03 00 00 00       	pushq  $0x3
  40078b:	e9 b0 ff ff ff       	jmpq   400740 <.plt>

0000000000400790 <fgets@plt>:
  400790:	ff 25 a2 18 20 00    	jmpq   *0x2018a2(%rip)        # 602038 <fgets@GLIBC_2.2.5>
  400796:	68 04 00 00 00       	pushq  $0x4
  40079b:	e9 a0 ff ff ff       	jmpq   400740 <.plt>

00000000004007a0 <calloc@plt>:
  4007a0:	ff 25 9a 18 20 00    	jmpq   *0x20189a(%rip)        # 602040 <calloc@GLIBC_2.2.5>
  4007a6:	68 05 00 00 00       	pushq  $0x5
  4007ab:	e9 90 ff ff ff       	jmpq   400740 <.plt>

00000000004007b0 <__monstartup@plt>:
  4007b0:	ff 25 92 18 20 00    	jmpq   *0x201892(%rip)        # 602048 <__monstartup@GLIBC_2.2.5>
  4007b6:	68 06 00 00 00       	pushq  $0x6
  4007bb:	e9 80 ff ff ff       	jmpq   400740 <.plt>

00000000004007c0 <strtol@plt>:
  4007c0:	ff 25 8a 18 20 00    	jmpq   *0x20188a(%rip)        # 602050 <strtol@GLIBC_2.2.5>
  4007c6:	68 07 00 00 00       	pushq  $0x7
  4007cb:	e9 70 ff ff ff       	jmpq   400740 <.plt>

00000000004007d0 <malloc@plt>:
  4007d0:	ff 25 82 18 20 00    	jmpq   *0x201882(%rip)        # 602058 <malloc@GLIBC_2.2.5>
  4007d6:	68 08 00 00 00       	pushq  $0x8
  4007db:	e9 60 ff ff ff       	jmpq   400740 <.plt>

00000000004007e0 <mcount@plt>:
  4007e0:	ff 25 7a 18 20 00    	jmpq   *0x20187a(%rip)        # 602060 <mcount@GLIBC_2.2.5>
  4007e6:	68 09 00 00 00       	pushq  $0x9
  4007eb:	e9 50 ff ff ff       	jmpq   400740 <.plt>

00000000004007f0 <__cxa_atexit@plt>:
  4007f0:	ff 25 72 18 20 00    	jmpq   *0x201872(%rip)        # 602068 <__cxa_atexit@GLIBC_2.2.5>
  4007f6:	68 0a 00 00 00       	pushq  $0xa
  4007fb:	e9 40 ff ff ff       	jmpq   400740 <.plt>

0000000000400800 <rand@plt>:
  400800:	ff 25 6a 18 20 00    	jmpq   *0x20186a(%rip)        # 602070 <rand@GLIBC_2.2.5>
  400806:	68 0b 00 00 00       	pushq  $0xb
  40080b:	e9 30 ff ff ff       	jmpq   400740 <.plt>

Disassembly of section .text:

0000000000400810 <_start>:
  400810:	f3 0f 1e fa          	endbr64 
  400814:	31 ed                	xor    %ebp,%ebp
  400816:	49 89 d1             	mov    %rdx,%r9
  400819:	5e                   	pop    %rsi
  40081a:	48 89 e2             	mov    %rsp,%rdx
  40081d:	48 83 e4 f0          	and    $0xfffffffffffffff0,%rsp
  400821:	50                   	push   %rax
  400822:	54                   	push   %rsp
  400823:	49 c7 c0 f0 10 40 00 	mov    $0x4010f0,%r8
  40082a:	48 c7 c1 80 10 40 00 	mov    $0x401080,%rcx
  400831:	48 c7 c7 fd 0b 40 00 	mov    $0x400bfd,%rdi
  400838:	ff 15 b2 17 20 00    	callq  *0x2017b2(%rip)        # 601ff0 <__libc_start_main@GLIBC_2.2.5>
  40083e:	f4                   	hlt    

000000000040083f <.annobin_gmon_start.c_end>:
  40083f:	90                   	nop

0000000000400840 <__gmon_start__>:
  400840:	f3 0f 1e fa          	endbr64 
  400844:	8b 05 3e 18 20 00    	mov    0x20183e(%rip),%eax        # 602088 <called.5066>
  40084a:	85 c0                	test   %eax,%eax
  40084c:	74 02                	je     400850 <__gmon_start__+0x10>
  40084e:	c3                   	retq   
  40084f:	90                   	nop
  400850:	48 83 ec 08          	sub    $0x8,%rsp
  400854:	48 c7 c7 10 08 40 00 	mov    $0x400810,%rdi
  40085b:	48 c7 c6 21 11 40 00 	mov    $0x401121,%rsi
  400862:	c7 05 1c 18 20 00 01 	movl   $0x1,0x20181c(%rip)        # 602088 <called.5066>
  400869:	00 00 00 
  40086c:	e8 3f ff ff ff       	callq  4007b0 <__monstartup@plt>
  400871:	48 8b 3d 70 17 20 00 	mov    0x201770(%rip),%rdi        # 601fe8 <_mcleanup@GLIBC_2.2.5>
  400878:	48 83 c4 08          	add    $0x8,%rsp
  40087c:	e9 7f 08 00 00       	jmpq   401100 <atexit>

0000000000400881 <.annobin___gmon_start__.end>:
  400881:	66 2e 0f 1f 84 00 00 	nopw   %cs:0x0(%rax,%rax,1)
  400888:	00 00 00 
  40088b:	0f 1f 44 00 00       	nopl   0x0(%rax,%rax,1)

0000000000400890 <_dl_relocate_static_pie>:
  400890:	f3 0f 1e fa          	endbr64 
  400894:	c3                   	retq   

0000000000400895 <.annobin__dl_relocate_static_pie.end>:
  400895:	66 2e 0f 1f 84 00 00 	nopw   %cs:0x0(%rax,%rax,1)
  40089c:	00 00 00 
  40089f:	90                   	nop

00000000004008a0 <deregister_tm_clones>:
  4008a0:	48 8d 3d d9 17 20 00 	lea    0x2017d9(%rip),%rdi        # 602080 <stdin@@GLIBC_2.2.5>
  4008a7:	48 8d 05 d2 17 20 00 	lea    0x2017d2(%rip),%rax        # 602080 <stdin@@GLIBC_2.2.5>
  4008ae:	48 39 f8             	cmp    %rdi,%rax
  4008b1:	74 15                	je     4008c8 <deregister_tm_clones+0x28>
  4008b3:	48 8b 05 26 17 20 00 	mov    0x201726(%rip),%rax        # 601fe0 <_ITM_deregisterTMCloneTable@Base>
  4008ba:	48 85 c0             	test   %rax,%rax
  4008bd:	74 09                	je     4008c8 <deregister_tm_clones+0x28>
  4008bf:	ff e0                	jmpq   *%rax
  4008c1:	0f 1f 80 00 00 00 00 	nopl   0x0(%rax)
  4008c8:	c3                   	retq   
  4008c9:	0f 1f 80 00 00 00 00 	nopl   0x0(%rax)

00000000004008d0 <register_tm_clones>:
  4008d0:	48 8d 3d a9 17 20 00 	lea    0x2017a9(%rip),%rdi        # 602080 <stdin@@GLIBC_2.2.5>
  4008d7:	48 8d 35 a2 17 20 00 	lea    0x2017a2(%rip),%rsi        # 602080 <stdin@@GLIBC_2.2.5>
  4008de:	48 29 fe             	sub    %rdi,%rsi
  4008e1:	48 c1 fe 03          	sar    $0x3,%rsi
  4008e5:	48 89 f0             	mov    %rsi,%rax
  4008e8:	48 c1 e8 3f          	shr    $0x3f,%rax
  4008ec:	48 01 c6             	add    %rax,%rsi
  4008ef:	48 d1 fe             	sar    %rsi
  4008f2:	74 14                	je     400908 <register_tm_clones+0x38>
  4008f4:	48 8b 05 fd 16 20 00 	mov    0x2016fd(%rip),%rax        # 601ff8 <_ITM_registerTMCloneTable@Base>
  4008fb:	48 85 c0             	test   %rax,%rax
  4008fe:	74 08                	je     400908 <register_tm_clones+0x38>
  400900:	ff e0                	jmpq   *%rax
  400902:	66 0f 1f 44 00 00    	nopw   0x0(%rax,%rax,1)
  400908:	c3                   	retq   
  400909:	0f 1f 80 00 00 00 00 	nopl   0x0(%rax)

0000000000400910 <__do_global_dtors_aux>:
  400910:	f3 0f 1e fa          	endbr64 
  400914:	80 3d 71 17 20 00 00 	cmpb   $0x0,0x201771(%rip)        # 60208c <completed.7307>
  40091b:	75 13                	jne    400930 <__do_global_dtors_aux+0x20>
  40091d:	55                   	push   %rbp
  40091e:	48 89 e5             	mov    %rsp,%rbp
  400921:	e8 7a ff ff ff       	callq  4008a0 <deregister_tm_clones>
  400926:	c6 05 5f 17 20 00 01 	movb   $0x1,0x20175f(%rip)        # 60208c <completed.7307>
  40092d:	5d                   	pop    %rbp
  40092e:	c3                   	retq   
  40092f:	90                   	nop
  400930:	c3                   	retq   
  400931:	66 66 2e 0f 1f 84 00 	data16 nopw %cs:0x0(%rax,%rax,1)
  400938:	00 00 00 00 
  40093c:	0f 1f 40 00          	nopl   0x0(%rax)

0000000000400940 <frame_dummy>:
  400940:	f3 0f 1e fa          	endbr64 
  400944:	eb 8a                	jmp    4008d0 <register_tm_clones>

0000000000400946 <swap>:
  400946:	55                   	push   %rbp
  400947:	48 89 e5             	mov    %rsp,%rbp
  40094a:	48 83 ec 20          	sub    $0x20,%rsp
  40094e:	e8 8d fe ff ff       	callq  4007e0 <mcount@plt>
  400953:	48 89 7d e8          	mov    %rdi,-0x18(%rbp)
  400957:	89 75 e4             	mov    %esi,-0x1c(%rbp)
  40095a:	89 55 e0             	mov    %edx,-0x20(%rbp)
  40095d:	8b 45 e4             	mov    -0x1c(%rbp),%eax
  400960:	48 98                	cltq   
  400962:	48 8d 14 c5 00 00 00 	lea    0x0(,%rax,8),%rdx
  400969:	00 
  40096a:	48 8b 45 e8          	mov    -0x18(%rbp),%rax
  40096e:	48 01 d0             	add    %rdx,%rax
  400971:	48 8b 00             	mov    (%rax),%rax
  400974:	48 89 45 f8          	mov    %rax,-0x8(%rbp)
  400978:	8b 45 e0             	mov    -0x20(%rbp),%eax
  40097b:	48 98                	cltq   
  40097d:	48 8d 14 c5 00 00 00 	lea    0x0(,%rax,8),%rdx
  400984:	00 
  400985:	48 8b 45 e8          	mov    -0x18(%rbp),%rax
  400989:	48 01 d0             	add    %rdx,%rax
  40098c:	8b 55 e4             	mov    -0x1c(%rbp),%edx
  40098f:	48 63 d2             	movslq %edx,%rdx
  400992:	48 8d 0c d5 00 00 00 	lea    0x0(,%rdx,8),%rcx
  400999:	00 
  40099a:	48 8b 55 e8          	mov    -0x18(%rbp),%rdx
  40099e:	48 01 ca             	add    %rcx,%rdx
  4009a1:	48 8b 00             	mov    (%rax),%rax
  4009a4:	48 89 02             	mov    %rax,(%rdx)
  4009a7:	8b 45 e0             	mov    -0x20(%rbp),%eax
  4009aa:	48 98                	cltq   
  4009ac:	48 8d 14 c5 00 00 00 	lea    0x0(,%rax,8),%rdx
  4009b3:	00 
  4009b4:	48 8b 45 e8          	mov    -0x18(%rbp),%rax
  4009b8:	48 01 c2             	add    %rax,%rdx
  4009bb:	48 8b 45 f8          	mov    -0x8(%rbp),%rax
  4009bf:	48 89 02             	mov    %rax,(%rdx)
  4009c2:	90                   	nop
  4009c3:	c9                   	leaveq 
  4009c4:	c3                   	retq   

00000000004009c5 <obtainIntInRange>:
  4009c5:	55                   	push   %rbp
  4009c6:	48 89 e5             	mov    %rsp,%rbp
  4009c9:	48 81 ec 20 01 00 00 	sub    $0x120,%rsp
  4009d0:	e8 0b fe ff ff       	callq  4007e0 <mcount@plt>
  4009d5:	48 89 bd e8 fe ff ff 	mov    %rdi,-0x118(%rbp)
  4009dc:	89 b5 e4 fe ff ff    	mov    %esi,-0x11c(%rbp)
  4009e2:	89 95 e0 fe ff ff    	mov    %edx,-0x120(%rbp)
  4009e8:	8b 8d e0 fe ff ff    	mov    -0x120(%rbp),%ecx
  4009ee:	8b 95 e4 fe ff ff    	mov    -0x11c(%rbp),%edx
  4009f4:	48 8b 85 e8 fe ff ff 	mov    -0x118(%rbp),%rax
  4009fb:	48 89 c6             	mov    %rax,%rsi
  4009fe:	bf 38 11 40 00       	mov    $0x401138,%edi
  400a03:	b8 00 00 00 00       	mov    $0x0,%eax
  400a08:	e8 73 fd ff ff       	callq  400780 <printf@plt>
  400a0d:	48 8b 15 6c 16 20 00 	mov    0x20166c(%rip),%rdx        # 602080 <stdin@@GLIBC_2.2.5>
  400a14:	48 8d 85 f0 fe ff ff 	lea    -0x110(%rbp),%rax
  400a1b:	be 00 01 00 00       	mov    $0x100,%esi
  400a20:	48 89 c7             	mov    %rax,%rdi
  400a23:	e8 68 fd ff ff       	callq  400790 <fgets@plt>
  400a28:	48 8d 85 f0 fe ff ff 	lea    -0x110(%rbp),%rax
  400a2f:	ba 0a 00 00 00       	mov    $0xa,%edx
  400a34:	be 00 00 00 00       	mov    $0x0,%esi
  400a39:	48 89 c7             	mov    %rax,%rdi
  400a3c:	e8 7f fd ff ff       	callq  4007c0 <strtol@plt>
  400a41:	89 45 fc             	mov    %eax,-0x4(%rbp)
  400a44:	8b 45 fc             	mov    -0x4(%rbp),%eax
  400a47:	3b 85 e4 fe ff ff    	cmp    -0x11c(%rbp),%eax
  400a4d:	7c 99                	jl     4009e8 <obtainIntInRange+0x23>
  400a4f:	8b 45 fc             	mov    -0x4(%rbp),%eax
  400a52:	3b 85 e0 fe ff ff    	cmp    -0x120(%rbp),%eax
  400a58:	7f 8e                	jg     4009e8 <obtainIntInRange+0x23>
  400a5a:	8b 45 fc             	mov    -0x4(%rbp),%eax
  400a5d:	c9                   	leaveq 
  400a5e:	c3                   	retq   

0000000000400a5f <generateStringArray>:
  400a5f:	55                   	push   %rbp
  400a60:	48 89 e5             	mov    %rsp,%rbp
  400a63:	53                   	push   %rbx
  400a64:	48 83 ec 28          	sub    $0x28,%rsp
  400a68:	e8 73 fd ff ff       	callq  4007e0 <mcount@plt>
  400a6d:	89 7d dc             	mov    %edi,-0x24(%rbp)
  400a70:	8b 45 dc             	mov    -0x24(%rbp),%eax
  400a73:	48 98                	cltq   
  400a75:	be 08 00 00 00       	mov    $0x8,%esi
  400a7a:	48 89 c7             	mov    %rax,%rdi
  400a7d:	e8 1e fd ff ff       	callq  4007a0 <calloc@plt>
  400a82:	48 89 45 e0          	mov    %rax,-0x20(%rbp)
  400a86:	c7 45 ec 00 00 00 00 	movl   $0x0,-0x14(%rbp)
  400a8d:	e9 83 00 00 00       	jmpq   400b15 <generateStringArray+0xb6>
  400a92:	8b 05 f8 15 20 00    	mov    0x2015f8(%rip),%eax        # 602090 <strLen>
  400a98:	48 98                	cltq   
  400a9a:	8b 55 ec             	mov    -0x14(%rbp),%edx
  400a9d:	48 63 d2             	movslq %edx,%rdx
  400aa0:	48 8d 0c d5 00 00 00 	lea    0x0(,%rdx,8),%rcx
  400aa7:	00 
  400aa8:	48 8b 55 e0          	mov    -0x20(%rbp),%rdx
  400aac:	48 8d 1c 11          	lea    (%rcx,%rdx,1),%rbx
  400ab0:	48 89 c7             	mov    %rax,%rdi
  400ab3:	e8 18 fd ff ff       	callq  4007d0 <malloc@plt>
  400ab8:	48 89 03             	mov    %rax,(%rbx)
  400abb:	c7 45 e8 00 00 00 00 	movl   $0x0,-0x18(%rbp)
  400ac2:	eb 42                	jmp    400b06 <generateStringArray+0xa7>
  400ac4:	e8 37 fd ff ff       	callq  400800 <rand@plt>
  400ac9:	89 c2                	mov    %eax,%edx
  400acb:	89 d0                	mov    %edx,%eax
  400acd:	c1 f8 1f             	sar    $0x1f,%eax
  400ad0:	c1 e8 1c             	shr    $0x1c,%eax
  400ad3:	01 c2                	add    %eax,%edx
  400ad5:	83 e2 0f             	and    $0xf,%edx
  400ad8:	29 c2                	sub    %eax,%edx
  400ada:	89 d0                	mov    %edx,%eax
  400adc:	8d 48 41             	lea    0x41(%rax),%ecx
  400adf:	8b 45 ec             	mov    -0x14(%rbp),%eax
  400ae2:	48 98                	cltq   
  400ae4:	48 8d 14 c5 00 00 00 	lea    0x0(,%rax,8),%rdx
  400aeb:	00 
  400aec:	48 8b 45 e0          	mov    -0x20(%rbp),%rax
  400af0:	48 01 d0             	add    %rdx,%rax
  400af3:	48 8b 10             	mov    (%rax),%rdx
  400af6:	8b 45 e8             	mov    -0x18(%rbp),%eax
  400af9:	48 98                	cltq   
  400afb:	48 01 d0             	add    %rdx,%rax
  400afe:	89 ca                	mov    %ecx,%edx
  400b00:	88 10                	mov    %dl,(%rax)
  400b02:	83 45 e8 01          	addl   $0x1,-0x18(%rbp)
  400b06:	8b 05 84 15 20 00    	mov    0x201584(%rip),%eax        # 602090 <strLen>
  400b0c:	39 45 e8             	cmp    %eax,-0x18(%rbp)
  400b0f:	7c b3                	jl     400ac4 <generateStringArray+0x65>
  400b11:	83 45 ec 01          	addl   $0x1,-0x14(%rbp)
  400b15:	8b 45 ec             	mov    -0x14(%rbp),%eax
  400b18:	3b 45 dc             	cmp    -0x24(%rbp),%eax
  400b1b:	0f 8c 71 ff ff ff    	jl     400a92 <generateStringArray+0x33>
  400b21:	48 8b 45 e0          	mov    -0x20(%rbp),%rax
  400b25:	48 83 c4 28          	add    $0x28,%rsp
  400b29:	5b                   	pop    %rbx
  400b2a:	5d                   	pop    %rbp
  400b2b:	c3                   	retq   

0000000000400b2c <print>:
  400b2c:	55                   	push   %rbp
  400b2d:	48 89 e5             	mov    %rsp,%rbp
  400b30:	48 83 ec 20          	sub    $0x20,%rsp
  400b34:	e8 a7 fc ff ff       	callq  4007e0 <mcount@plt>
  400b39:	48 89 7d e8          	mov    %rdi,-0x18(%rbp)
  400b3d:	89 75 e4             	mov    %esi,-0x1c(%rbp)
  400b40:	c7 45 fc 00 00 00 00 	movl   $0x0,-0x4(%rbp)
  400b47:	eb 52                	jmp    400b9b <print+0x6f>
  400b49:	c7 45 f8 00 00 00 00 	movl   $0x0,-0x8(%rbp)
  400b50:	eb 30                	jmp    400b82 <print+0x56>
  400b52:	8b 45 fc             	mov    -0x4(%rbp),%eax
  400b55:	48 98                	cltq   
  400b57:	48 8d 14 c5 00 00 00 	lea    0x0(,%rax,8),%rdx
  400b5e:	00 
  400b5f:	48 8b 45 e8          	mov    -0x18(%rbp),%rax
  400b63:	48 01 d0             	add    %rdx,%rax
  400b66:	48 8b 10             	mov    (%rax),%rdx
  400b69:	8b 45 f8             	mov    -0x8(%rbp),%eax
  400b6c:	48 98                	cltq   
  400b6e:	48 01 d0             	add    %rdx,%rax
  400b71:	0f b6 00             	movzbl (%rax),%eax
  400b74:	0f be c0             	movsbl %al,%eax
  400b77:	89 c7                	mov    %eax,%edi
  400b79:	e8 e2 fb ff ff       	callq  400760 <putchar@plt>
  400b7e:	83 45 f8 01          	addl   $0x1,-0x8(%rbp)
  400b82:	8b 05 08 15 20 00    	mov    0x201508(%rip),%eax        # 602090 <strLen>
  400b88:	39 45 f8             	cmp    %eax,-0x8(%rbp)
  400b8b:	7c c5                	jl     400b52 <print+0x26>
  400b8d:	bf 0a 00 00 00       	mov    $0xa,%edi
  400b92:	e8 c9 fb ff ff       	callq  400760 <putchar@plt>
  400b97:	83 45 fc 01          	addl   $0x1,-0x4(%rbp)
  400b9b:	8b 45 fc             	mov    -0x4(%rbp),%eax
  400b9e:	3b 45 e4             	cmp    -0x1c(%rbp),%eax
  400ba1:	7c a6                	jl     400b49 <print+0x1d>
  400ba3:	90                   	nop
  400ba4:	c9                   	leaveq 
  400ba5:	c3                   	retq   

0000000000400ba6 <releaseMem>:
  400ba6:	55                   	push   %rbp
  400ba7:	48 89 e5             	mov    %rsp,%rbp
  400baa:	48 83 ec 20          	sub    $0x20,%rsp
  400bae:	e8 2d fc ff ff       	callq  4007e0 <mcount@plt>
  400bb3:	48 89 7d e8          	mov    %rdi,-0x18(%rbp)
  400bb7:	89 75 e4             	mov    %esi,-0x1c(%rbp)
  400bba:	c7 45 fc 00 00 00 00 	movl   $0x0,-0x4(%rbp)
  400bc1:	eb 23                	jmp    400be6 <releaseMem+0x40>
  400bc3:	8b 45 fc             	mov    -0x4(%rbp),%eax
  400bc6:	48 98                	cltq   
  400bc8:	48 8d 14 c5 00 00 00 	lea    0x0(,%rax,8),%rdx
  400bcf:	00 
  400bd0:	48 8b 45 e8          	mov    -0x18(%rbp),%rax
  400bd4:	48 01 d0             	add    %rdx,%rax
  400bd7:	48 8b 00             	mov    (%rax),%rax
  400bda:	48 89 c7             	mov    %rax,%rdi
  400bdd:	e8 6e fb ff ff       	callq  400750 <free@plt>
  400be2:	83 45 fc 01          	addl   $0x1,-0x4(%rbp)
  400be6:	8b 45 fc             	mov    -0x4(%rbp),%eax
  400be9:	3b 45 e4             	cmp    -0x1c(%rbp),%eax
  400bec:	7c d5                	jl     400bc3 <releaseMem+0x1d>
  400bee:	48 8b 45 e8          	mov    -0x18(%rbp),%rax
  400bf2:	48 89 c7             	mov    %rax,%rdi
  400bf5:	e8 56 fb ff ff       	callq  400750 <free@plt>
  400bfa:	90                   	nop
  400bfb:	c9                   	leaveq 
  400bfc:	c3                   	retq   

0000000000400bfd <main>:
  400bfd:	55                   	push   %rbp
  400bfe:	48 89 e5             	mov    %rsp,%rbp
  400c01:	48 83 ec 10          	sub    $0x10,%rsp
  400c05:	e8 d6 fb ff ff       	callq  4007e0 <mcount@plt>
  400c0a:	ba 00 00 10 00       	mov    $0x100000,%edx
  400c0f:	be 01 00 00 00       	mov    $0x1,%esi
  400c14:	bf 52 11 40 00       	mov    $0x401152,%edi
  400c19:	e8 a7 fd ff ff       	callq  4009c5 <obtainIntInRange>
  400c1e:	89 45 fc             	mov    %eax,-0x4(%rbp)
  400c21:	ba 10 00 00 00       	mov    $0x10,%edx
  400c26:	be 01 00 00 00       	mov    $0x1,%esi
  400c2b:	bf 64 11 40 00       	mov    $0x401164,%edi
  400c30:	e8 90 fd ff ff       	callq  4009c5 <obtainIntInRange>
  400c35:	89 05 55 14 20 00    	mov    %eax,0x201455(%rip)        # 602090 <strLen>
  400c3b:	ba 02 00 00 00       	mov    $0x2,%edx
  400c40:	be 01 00 00 00       	mov    $0x1,%esi
  400c45:	bf 80 11 40 00       	mov    $0x401180,%edi
  400c4a:	e8 76 fd ff ff       	callq  4009c5 <obtainIntInRange>
  400c4f:	89 45 f8             	mov    %eax,-0x8(%rbp)
  400c52:	8b 45 fc             	mov    -0x4(%rbp),%eax
  400c55:	89 c7                	mov    %eax,%edi
  400c57:	e8 03 fe ff ff       	callq  400a5f <generateStringArray>
  400c5c:	48 89 45 f0          	mov    %rax,-0x10(%rbp)
  400c60:	83 7d f8 01          	cmpl   $0x1,-0x8(%rbp)
  400c64:	74 08                	je     400c6e <main+0x71>
  400c66:	83 7d f8 02          	cmpl   $0x2,-0x8(%rbp)
  400c6a:	74 1a                	je     400c86 <main+0x89>
  400c6c:	eb 2f                	jmp    400c9d <main+0xa0>
  400c6e:	8b 55 fc             	mov    -0x4(%rbp),%edx
  400c71:	48 8b 45 f0          	mov    -0x10(%rbp),%rax
  400c75:	89 d6                	mov    %edx,%esi
  400c77:	48 89 c7             	mov    %rax,%rdi
  400c7a:	b8 00 00 00 00       	mov    $0x0,%eax
  400c7f:	e8 42 00 00 00       	callq  400cc6 <insertionSort>
  400c84:	eb 17                	jmp    400c9d <main+0xa0>
  400c86:	8b 55 fc             	mov    -0x4(%rbp),%edx
  400c89:	48 8b 45 f0          	mov    -0x10(%rbp),%rax
  400c8d:	89 d6                	mov    %edx,%esi
  400c8f:	48 89 c7             	mov    %rax,%rdi
  400c92:	b8 00 00 00 00       	mov    $0x0,%eax
  400c97:	e8 b6 03 00 00       	callq  401052 <quickSort>
  400c9c:	90                   	nop
  400c9d:	8b 55 fc             	mov    -0x4(%rbp),%edx
  400ca0:	48 8b 45 f0          	mov    -0x10(%rbp),%rax
  400ca4:	89 d6                	mov    %edx,%esi
  400ca6:	48 89 c7             	mov    %rax,%rdi
  400ca9:	e8 7e fe ff ff       	callq  400b2c <print>
  400cae:	8b 55 fc             	mov    -0x4(%rbp),%edx
  400cb1:	48 8b 45 f0          	mov    -0x10(%rbp),%rax
  400cb5:	89 d6                	mov    %edx,%esi
  400cb7:	48 89 c7             	mov    %rax,%rdi
  400cba:	e8 e7 fe ff ff       	callq  400ba6 <releaseMem>
  400cbf:	b8 00 00 00 00       	mov    $0x0,%eax
  400cc4:	c9                   	leaveq 
  400cc5:	c3                   	retq   

0000000000400cc6 <insertionSort>:
  400cc6:	55                   	push   %rbp
  400cc7:	48 89 e5             	mov    %rsp,%rbp
  400cca:	48 83 ec 20          	sub    $0x20,%rsp
  400cce:	e8 0d fb ff ff       	callq  4007e0 <mcount@plt>
  400cd3:	48 89 7d e8          	mov    %rdi,-0x18(%rbp)
  400cd7:	89 75 e4             	mov    %esi,-0x1c(%rbp)
  400cda:	c7 45 fc 00 00 00 00 	movl   $0x0,-0x4(%rbp)
  400ce1:	eb 7a                	jmp    400d5d <insertionSort+0x97>
  400ce3:	8b 45 fc             	mov    -0x4(%rbp),%eax
  400ce6:	83 c0 01             	add    $0x1,%eax
  400ce9:	89 45 f8             	mov    %eax,-0x8(%rbp)
  400cec:	eb 63                	jmp    400d51 <insertionSort+0x8b>
  400cee:	8b 05 9c 13 20 00    	mov    0x20139c(%rip),%eax        # 602090 <strLen>
  400cf4:	48 63 d0             	movslq %eax,%rdx
  400cf7:	8b 45 f8             	mov    -0x8(%rbp),%eax
  400cfa:	48 98                	cltq   
  400cfc:	48 8d 0c c5 00 00 00 	lea    0x0(,%rax,8),%rcx
  400d03:	00 
  400d04:	48 8b 45 e8          	mov    -0x18(%rbp),%rax
  400d08:	48 01 c8             	add    %rcx,%rax
  400d0b:	48 8b 08             	mov    (%rax),%rcx
  400d0e:	8b 45 fc             	mov    -0x4(%rbp),%eax
  400d11:	48 98                	cltq   
  400d13:	48 8d 34 c5 00 00 00 	lea    0x0(,%rax,8),%rsi
  400d1a:	00 
  400d1b:	48 8b 45 e8          	mov    -0x18(%rbp),%rax
  400d1f:	48 01 f0             	add    %rsi,%rax
  400d22:	48 8b 00             	mov    (%rax),%rax
  400d25:	48 89 ce             	mov    %rcx,%rsi
  400d28:	48 89 c7             	mov    %rax,%rdi
  400d2b:	e8 40 fa ff ff       	callq  400770 <strncmp@plt>
  400d30:	85 c0                	test   %eax,%eax
  400d32:	7e 19                	jle    400d4d <insertionSort+0x87>
  400d34:	8b 55 f8             	mov    -0x8(%rbp),%edx
  400d37:	8b 4d fc             	mov    -0x4(%rbp),%ecx
  400d3a:	48 8b 45 e8          	mov    -0x18(%rbp),%rax
  400d3e:	89 ce                	mov    %ecx,%esi
  400d40:	48 89 c7             	mov    %rax,%rdi
  400d43:	b8 00 00 00 00       	mov    $0x0,%eax
  400d48:	e8 f9 fb ff ff       	callq  400946 <swap>
  400d4d:	83 45 f8 01          	addl   $0x1,-0x8(%rbp)
  400d51:	8b 45 f8             	mov    -0x8(%rbp),%eax
  400d54:	3b 45 e4             	cmp    -0x1c(%rbp),%eax
  400d57:	7c 95                	jl     400cee <insertionSort+0x28>
  400d59:	83 45 fc 01          	addl   $0x1,-0x4(%rbp)
  400d5d:	8b 45 e4             	mov    -0x1c(%rbp),%eax
  400d60:	83 e8 01             	sub    $0x1,%eax
  400d63:	39 45 fc             	cmp    %eax,-0x4(%rbp)
  400d66:	0f 8c 77 ff ff ff    	jl     400ce3 <insertionSort+0x1d>
  400d6c:	90                   	nop
  400d6d:	c9                   	leaveq 
  400d6e:	c3                   	retq   

0000000000400d6f <partition>:
  400d6f:	55                   	push   %rbp
  400d70:	48 89 e5             	mov    %rsp,%rbp
  400d73:	48 83 ec 20          	sub    $0x20,%rsp
  400d77:	e8 64 fa ff ff       	callq  4007e0 <mcount@plt>
  400d7c:	48 89 7d f8          	mov    %rdi,-0x8(%rbp)
  400d80:	48 89 75 f0          	mov    %rsi,-0x10(%rbp)
  400d84:	89 55 ec             	mov    %edx,-0x14(%rbp)
  400d87:	89 4d e8             	mov    %ecx,-0x18(%rbp)
  400d8a:	83 6d ec 01          	subl   $0x1,-0x14(%rbp)
  400d8e:	83 45 e8 01          	addl   $0x1,-0x18(%rbp)
  400d92:	83 45 ec 01          	addl   $0x1,-0x14(%rbp)
  400d96:	8b 05 f4 12 20 00    	mov    0x2012f4(%rip),%eax        # 602090 <strLen>
  400d9c:	48 63 d0             	movslq %eax,%rdx
  400d9f:	8b 45 ec             	mov    -0x14(%rbp),%eax
  400da2:	48 98                	cltq   
  400da4:	48 8d 0c c5 00 00 00 	lea    0x0(,%rax,8),%rcx
  400dab:	00 
  400dac:	48 8b 45 f8          	mov    -0x8(%rbp),%rax
  400db0:	48 01 c8             	add    %rcx,%rax
  400db3:	48 8b 00             	mov    (%rax),%rax
  400db6:	48 8b 4d f0          	mov    -0x10(%rbp),%rcx
  400dba:	48 89 ce             	mov    %rcx,%rsi
  400dbd:	48 89 c7             	mov    %rax,%rdi
  400dc0:	e8 ab f9 ff ff       	callq  400770 <strncmp@plt>
  400dc5:	85 c0                	test   %eax,%eax
  400dc7:	78 c9                	js     400d92 <partition+0x23>
  400dc9:	83 6d e8 01          	subl   $0x1,-0x18(%rbp)
  400dcd:	8b 05 bd 12 20 00    	mov    0x2012bd(%rip),%eax        # 602090 <strLen>
  400dd3:	48 63 d0             	movslq %eax,%rdx
  400dd6:	8b 45 e8             	mov    -0x18(%rbp),%eax
  400dd9:	48 98                	cltq   
  400ddb:	48 8d 0c c5 00 00 00 	lea    0x0(,%rax,8),%rcx
  400de2:	00 
  400de3:	48 8b 45 f8          	mov    -0x8(%rbp),%rax
  400de7:	48 01 c8             	add    %rcx,%rax
  400dea:	48 8b 00             	mov    (%rax),%rax
  400ded:	48 8b 4d f0          	mov    -0x10(%rbp),%rcx
  400df1:	48 89 ce             	mov    %rcx,%rsi
  400df4:	48 89 c7             	mov    %rax,%rdi
  400df7:	e8 74 f9 ff ff       	callq  400770 <strncmp@plt>
  400dfc:	85 c0                	test   %eax,%eax
  400dfe:	7f c9                	jg     400dc9 <partition+0x5a>
  400e00:	8b 45 ec             	mov    -0x14(%rbp),%eax
  400e03:	3b 45 e8             	cmp    -0x18(%rbp),%eax
  400e06:	7d 1e                	jge    400e26 <partition+0xb7>
  400e08:	8b 55 e8             	mov    -0x18(%rbp),%edx
  400e0b:	8b 4d ec             	mov    -0x14(%rbp),%ecx
  400e0e:	48 8b 45 f8          	mov    -0x8(%rbp),%rax
  400e12:	89 ce                	mov    %ecx,%esi
  400e14:	48 89 c7             	mov    %rax,%rdi
  400e17:	b8 00 00 00 00       	mov    $0x0,%eax
  400e1c:	e8 25 fb ff ff       	callq  400946 <swap>
  400e21:	e9 6c ff ff ff       	jmpq   400d92 <partition+0x23>
  400e26:	90                   	nop
  400e27:	8b 45 e8             	mov    -0x18(%rbp),%eax
  400e2a:	c9                   	leaveq 
  400e2b:	c3                   	retq   

0000000000400e2c <pivot>:
  400e2c:	55                   	push   %rbp
  400e2d:	48 89 e5             	mov    %rsp,%rbp
  400e30:	48 83 ec 30          	sub    $0x30,%rsp
  400e34:	e8 a7 f9 ff ff       	callq  4007e0 <mcount@plt>
  400e39:	48 89 7d d8          	mov    %rdi,-0x28(%rbp)
  400e3d:	89 75 d4             	mov    %esi,-0x2c(%rbp)
  400e40:	89 55 d0             	mov    %edx,-0x30(%rbp)
  400e43:	8b 45 d4             	mov    -0x2c(%rbp),%eax
  400e46:	48 98                	cltq   
  400e48:	48 8d 14 c5 00 00 00 	lea    0x0(,%rax,8),%rdx
  400e4f:	00 
  400e50:	48 8b 45 d8          	mov    -0x28(%rbp),%rax
  400e54:	48 01 d0             	add    %rdx,%rax
  400e57:	48 8b 00             	mov    (%rax),%rax
  400e5a:	48 89 45 f8          	mov    %rax,-0x8(%rbp)
  400e5e:	8b 55 d4             	mov    -0x2c(%rbp),%edx
  400e61:	8b 45 d0             	mov    -0x30(%rbp),%eax
  400e64:	01 d0                	add    %edx,%eax
  400e66:	89 c2                	mov    %eax,%edx
  400e68:	c1 ea 1f             	shr    $0x1f,%edx
  400e6b:	01 d0                	add    %edx,%eax
  400e6d:	d1 f8                	sar    %eax
  400e6f:	48 98                	cltq   
  400e71:	48 8d 14 c5 00 00 00 	lea    0x0(,%rax,8),%rdx
  400e78:	00 
  400e79:	48 8b 45 d8          	mov    -0x28(%rbp),%rax
  400e7d:	48 01 d0             	add    %rdx,%rax
  400e80:	48 8b 00             	mov    (%rax),%rax
  400e83:	48 89 45 f0          	mov    %rax,-0x10(%rbp)
  400e87:	8b 45 d0             	mov    -0x30(%rbp),%eax
  400e8a:	48 98                	cltq   
  400e8c:	48 8d 14 c5 00 00 00 	lea    0x0(,%rax,8),%rdx
  400e93:	00 
  400e94:	48 8b 45 d8          	mov    -0x28(%rbp),%rax
  400e98:	48 01 d0             	add    %rdx,%rax
  400e9b:	48 8b 00             	mov    (%rax),%rax
  400e9e:	48 89 45 e8          	mov    %rax,-0x18(%rbp)
  400ea2:	8b 05 e8 11 20 00    	mov    0x2011e8(%rip),%eax        # 602090 <strLen>
  400ea8:	48 63 d0             	movslq %eax,%rdx
  400eab:	48 8b 4d f0          	mov    -0x10(%rbp),%rcx
  400eaf:	48 8b 45 f8          	mov    -0x8(%rbp),%rax
  400eb3:	48 89 ce             	mov    %rcx,%rsi
  400eb6:	48 89 c7             	mov    %rax,%rdi
  400eb9:	e8 b2 f8 ff ff       	callq  400770 <strncmp@plt>
  400ebe:	85 c0                	test   %eax,%eax
  400ec0:	7f 20                	jg     400ee2 <pivot+0xb6>
  400ec2:	8b 05 c8 11 20 00    	mov    0x2011c8(%rip),%eax        # 602090 <strLen>
  400ec8:	48 63 d0             	movslq %eax,%rdx
  400ecb:	48 8b 4d e8          	mov    -0x18(%rbp),%rcx
  400ecf:	48 8b 45 f0          	mov    -0x10(%rbp),%rax
  400ed3:	48 89 ce             	mov    %rcx,%rsi
  400ed6:	48 89 c7             	mov    %rax,%rdi
  400ed9:	e8 92 f8 ff ff       	callq  400770 <strncmp@plt>
  400ede:	85 c0                	test   %eax,%eax
  400ee0:	7e 40                	jle    400f22 <pivot+0xf6>
  400ee2:	8b 05 a8 11 20 00    	mov    0x2011a8(%rip),%eax        # 602090 <strLen>
  400ee8:	48 63 d0             	movslq %eax,%rdx
  400eeb:	48 8b 4d f0          	mov    -0x10(%rbp),%rcx
  400eef:	48 8b 45 f8          	mov    -0x8(%rbp),%rax
  400ef3:	48 89 ce             	mov    %rcx,%rsi
  400ef6:	48 89 c7             	mov    %rax,%rdi
  400ef9:	e8 72 f8 ff ff       	callq  400770 <strncmp@plt>
  400efe:	85 c0                	test   %eax,%eax
  400f00:	78 36                	js     400f38 <pivot+0x10c>
  400f02:	8b 05 88 11 20 00    	mov    0x201188(%rip),%eax        # 602090 <strLen>
  400f08:	48 63 d0             	movslq %eax,%rdx
  400f0b:	48 8b 4d e8          	mov    -0x18(%rbp),%rcx
  400f0f:	48 8b 45 f0          	mov    -0x10(%rbp),%rax
  400f13:	48 89 ce             	mov    %rcx,%rsi
  400f16:	48 89 c7             	mov    %rax,%rdi
  400f19:	e8 52 f8 ff ff       	callq  400770 <strncmp@plt>
  400f1e:	85 c0                	test   %eax,%eax
  400f20:	78 16                	js     400f38 <pivot+0x10c>
  400f22:	8b 55 d4             	mov    -0x2c(%rbp),%edx
  400f25:	8b 45 d0             	mov    -0x30(%rbp),%eax
  400f28:	01 d0                	add    %edx,%eax
  400f2a:	89 c2                	mov    %eax,%edx
  400f2c:	c1 ea 1f             	shr    $0x1f,%edx
  400f2f:	01 d0                	add    %edx,%eax
  400f31:	d1 f8                	sar    %eax
  400f33:	e9 88 00 00 00       	jmpq   400fc0 <pivot+0x194>
  400f38:	8b 05 52 11 20 00    	mov    0x201152(%rip),%eax        # 602090 <strLen>
  400f3e:	48 63 d0             	movslq %eax,%rdx
  400f41:	48 8b 4d f8          	mov    -0x8(%rbp),%rcx
  400f45:	48 8b 45 f0          	mov    -0x10(%rbp),%rax
  400f49:	48 89 ce             	mov    %rcx,%rsi
  400f4c:	48 89 c7             	mov    %rax,%rdi
  400f4f:	e8 1c f8 ff ff       	callq  400770 <strncmp@plt>
  400f54:	85 c0                	test   %eax,%eax
  400f56:	7f 20                	jg     400f78 <pivot+0x14c>
  400f58:	8b 05 32 11 20 00    	mov    0x201132(%rip),%eax        # 602090 <strLen>
  400f5e:	48 63 d0             	movslq %eax,%rdx
  400f61:	48 8b 4d e8          	mov    -0x18(%rbp),%rcx
  400f65:	48 8b 45 f8          	mov    -0x8(%rbp),%rax
  400f69:	48 89 ce             	mov    %rcx,%rsi
  400f6c:	48 89 c7             	mov    %rax,%rdi
  400f6f:	e8 fc f7 ff ff       	callq  400770 <strncmp@plt>
  400f74:	85 c0                	test   %eax,%eax
  400f76:	7e 40                	jle    400fb8 <pivot+0x18c>
  400f78:	8b 05 12 11 20 00    	mov    0x201112(%rip),%eax        # 602090 <strLen>
  400f7e:	48 63 d0             	movslq %eax,%rdx
  400f81:	48 8b 4d f8          	mov    -0x8(%rbp),%rcx
  400f85:	48 8b 45 f0          	mov    -0x10(%rbp),%rax
  400f89:	48 89 ce             	mov    %rcx,%rsi
  400f8c:	48 89 c7             	mov    %rax,%rdi
  400f8f:	e8 dc f7 ff ff       	callq  400770 <strncmp@plt>
  400f94:	85 c0                	test   %eax,%eax
  400f96:	78 25                	js     400fbd <pivot+0x191>
  400f98:	8b 05 f2 10 20 00    	mov    0x2010f2(%rip),%eax        # 602090 <strLen>
  400f9e:	48 63 d0             	movslq %eax,%rdx
  400fa1:	48 8b 4d e8          	mov    -0x18(%rbp),%rcx
  400fa5:	48 8b 45 f8          	mov    -0x8(%rbp),%rax
  400fa9:	48 89 ce             	mov    %rcx,%rsi
  400fac:	48 89 c7             	mov    %rax,%rdi
  400faf:	e8 bc f7 ff ff       	callq  400770 <strncmp@plt>
  400fb4:	85 c0                	test   %eax,%eax
  400fb6:	78 05                	js     400fbd <pivot+0x191>
  400fb8:	8b 45 d4             	mov    -0x2c(%rbp),%eax
  400fbb:	eb 03                	jmp    400fc0 <pivot+0x194>
  400fbd:	8b 45 d0             	mov    -0x30(%rbp),%eax
  400fc0:	c9                   	leaveq 
  400fc1:	c3                   	retq   

0000000000400fc2 <quickSort_>:
  400fc2:	55                   	push   %rbp
  400fc3:	48 89 e5             	mov    %rsp,%rbp
  400fc6:	48 83 ec 20          	sub    $0x20,%rsp
  400fca:	e8 11 f8 ff ff       	callq  4007e0 <mcount@plt>
  400fcf:	48 89 7d e8          	mov    %rdi,-0x18(%rbp)
  400fd3:	89 75 e4             	mov    %esi,-0x1c(%rbp)
  400fd6:	89 55 e0             	mov    %edx,-0x20(%rbp)
  400fd9:	8b 45 e4             	mov    -0x1c(%rbp),%eax
  400fdc:	3b 45 e0             	cmp    -0x20(%rbp),%eax
  400fdf:	7d 6e                	jge    40104f <quickSort_+0x8d>
  400fe1:	8b 55 e0             	mov    -0x20(%rbp),%edx
  400fe4:	8b 4d e4             	mov    -0x1c(%rbp),%ecx
  400fe7:	48 8b 45 e8          	mov    -0x18(%rbp),%rax
  400feb:	89 ce                	mov    %ecx,%esi
  400fed:	48 89 c7             	mov    %rax,%rdi
  400ff0:	e8 37 fe ff ff       	callq  400e2c <pivot>
  400ff5:	89 45 fc             	mov    %eax,-0x4(%rbp)
  400ff8:	8b 45 fc             	mov    -0x4(%rbp),%eax
  400ffb:	48 98                	cltq   
  400ffd:	48 8d 14 c5 00 00 00 	lea    0x0(,%rax,8),%rdx
  401004:	00 
  401005:	48 8b 45 e8          	mov    -0x18(%rbp),%rax
  401009:	48 01 d0             	add    %rdx,%rax
  40100c:	48 8b 30             	mov    (%rax),%rsi
  40100f:	8b 4d e0             	mov    -0x20(%rbp),%ecx
  401012:	8b 55 e4             	mov    -0x1c(%rbp),%edx
  401015:	48 8b 45 e8          	mov    -0x18(%rbp),%rax
  401019:	48 89 c7             	mov    %rax,%rdi
  40101c:	e8 4e fd ff ff       	callq  400d6f <partition>
  401021:	89 45 fc             	mov    %eax,-0x4(%rbp)
  401024:	8b 55 fc             	mov    -0x4(%rbp),%edx
  401027:	8b 4d e4             	mov    -0x1c(%rbp),%ecx
  40102a:	48 8b 45 e8          	mov    -0x18(%rbp),%rax
  40102e:	89 ce                	mov    %ecx,%esi
  401030:	48 89 c7             	mov    %rax,%rdi
  401033:	e8 8a ff ff ff       	callq  400fc2 <quickSort_>
  401038:	8b 45 fc             	mov    -0x4(%rbp),%eax
  40103b:	8d 48 01             	lea    0x1(%rax),%ecx
  40103e:	8b 55 e0             	mov    -0x20(%rbp),%edx
  401041:	48 8b 45 e8          	mov    -0x18(%rbp),%rax
  401045:	89 ce                	mov    %ecx,%esi
  401047:	48 89 c7             	mov    %rax,%rdi
  40104a:	e8 73 ff ff ff       	callq  400fc2 <quickSort_>
  40104f:	90                   	nop
  401050:	c9                   	leaveq 
  401051:	c3                   	retq   

0000000000401052 <quickSort>:
  401052:	55                   	push   %rbp
  401053:	48 89 e5             	mov    %rsp,%rbp
  401056:	48 83 ec 10          	sub    $0x10,%rsp
  40105a:	e8 81 f7 ff ff       	callq  4007e0 <mcount@plt>
  40105f:	48 89 7d f8          	mov    %rdi,-0x8(%rbp)
  401063:	89 75 f4             	mov    %esi,-0xc(%rbp)
  401066:	8b 45 f4             	mov    -0xc(%rbp),%eax
  401069:	8d 50 ff             	lea    -0x1(%rax),%edx
  40106c:	48 8b 45 f8          	mov    -0x8(%rbp),%rax
  401070:	be 00 00 00 00       	mov    $0x0,%esi
  401075:	48 89 c7             	mov    %rax,%rdi
  401078:	e8 45 ff ff ff       	callq  400fc2 <quickSort_>
  40107d:	90                   	nop
  40107e:	c9                   	leaveq 
  40107f:	c3                   	retq   

0000000000401080 <__libc_csu_init>:
  401080:	f3 0f 1e fa          	endbr64 
  401084:	41 57                	push   %r15
  401086:	49 89 d7             	mov    %rdx,%r15
  401089:	41 56                	push   %r14
  40108b:	49 89 f6             	mov    %rsi,%r14
  40108e:	41 55                	push   %r13
  401090:	41 89 fd             	mov    %edi,%r13d
  401093:	41 54                	push   %r12
  401095:	4c 8d 25 64 0d 20 00 	lea    0x200d64(%rip),%r12        # 601e00 <__frame_dummy_init_array_entry>
  40109c:	55                   	push   %rbp
  40109d:	48 8d 2d 64 0d 20 00 	lea    0x200d64(%rip),%rbp        # 601e08 <__init_array_end>
  4010a4:	53                   	push   %rbx
  4010a5:	4c 29 e5             	sub    %r12,%rbp
  4010a8:	48 83 ec 08          	sub    $0x8,%rsp
  4010ac:	e8 67 f6 ff ff       	callq  400718 <_init>
  4010b1:	48 c1 fd 03          	sar    $0x3,%rbp
  4010b5:	74 1f                	je     4010d6 <__libc_csu_init+0x56>
  4010b7:	31 db                	xor    %ebx,%ebx
  4010b9:	0f 1f 80 00 00 00 00 	nopl   0x0(%rax)
  4010c0:	4c 89 fa             	mov    %r15,%rdx
  4010c3:	4c 89 f6             	mov    %r14,%rsi
  4010c6:	44 89 ef             	mov    %r13d,%edi
  4010c9:	41 ff 14 dc          	callq  *(%r12,%rbx,8)
  4010cd:	48 83 c3 01          	add    $0x1,%rbx
  4010d1:	48 39 dd             	cmp    %rbx,%rbp
  4010d4:	75 ea                	jne    4010c0 <__libc_csu_init+0x40>
  4010d6:	48 83 c4 08          	add    $0x8,%rsp
  4010da:	5b                   	pop    %rbx
  4010db:	5d                   	pop    %rbp
  4010dc:	41 5c                	pop    %r12
  4010de:	41 5d                	pop    %r13
  4010e0:	41 5e                	pop    %r14
  4010e2:	41 5f                	pop    %r15
  4010e4:	c3                   	retq   

00000000004010e5 <.annobin___libc_csu_fini.start>:
  4010e5:	66 66 2e 0f 1f 84 00 	data16 nopw %cs:0x0(%rax,%rax,1)
  4010ec:	00 00 00 00 

00000000004010f0 <__libc_csu_fini>:
  4010f0:	f3 0f 1e fa          	endbr64 
  4010f4:	c3                   	retq   

00000000004010f5 <.annobin___libc_csu_fini.end>:
  4010f5:	66 2e 0f 1f 84 00 00 	nopw   %cs:0x0(%rax,%rax,1)
  4010fc:	00 00 00 
  4010ff:	90                   	nop

0000000000401100 <atexit>:
  401100:	f3 0f 1e fa          	endbr64 
  401104:	48 8b 15 25 00 00 00 	mov    0x25(%rip),%rdx        # 401130 <__dso_handle>
  40110b:	31 f6                	xor    %esi,%esi
  40110d:	e9 de f6 ff ff       	jmpq   4007f0 <__cxa_atexit@plt>

Disassembly of section .fini:

0000000000401114 <_fini>:
  401114:	f3 0f 1e fa          	endbr64 
  401118:	48 83 ec 08          	sub    $0x8,%rsp
  40111c:	48 83 c4 08          	add    $0x8,%rsp
  401120:	c3                   	retq   
