
assign1-2:     file format elf64-x86-64


Disassembly of section .init:

0000000000400750 <_init>:
  400750:	f3 0f 1e fa          	endbr64 
  400754:	48 83 ec 08          	sub    $0x8,%rsp
  400758:	48 c7 c0 20 09 40 00 	mov    $0x400920,%rax
  40075f:	48 85 c0             	test   %rax,%rax
  400762:	74 02                	je     400766 <_init+0x16>
  400764:	ff d0                	callq  *%rax
  400766:	48 83 c4 08          	add    $0x8,%rsp
  40076a:	c3                   	retq   

Disassembly of section .plt:

0000000000400770 <.plt>:
  400770:	ff 35 92 18 20 00    	pushq  0x201892(%rip)        # 602008 <_GLOBAL_OFFSET_TABLE_+0x8>
  400776:	ff 25 94 18 20 00    	jmpq   *0x201894(%rip)        # 602010 <_GLOBAL_OFFSET_TABLE_+0x10>
  40077c:	0f 1f 40 00          	nopl   0x0(%rax)

0000000000400780 <free@plt>:
  400780:	ff 25 92 18 20 00    	jmpq   *0x201892(%rip)        # 602018 <free@GLIBC_2.2.5>
  400786:	68 00 00 00 00       	pushq  $0x0
  40078b:	e9 e0 ff ff ff       	jmpq   400770 <.plt>

0000000000400790 <strncmp@plt>:
  400790:	ff 25 8a 18 20 00    	jmpq   *0x20188a(%rip)        # 602020 <strncmp@GLIBC_2.2.5>
  400796:	68 01 00 00 00       	pushq  $0x1
  40079b:	e9 d0 ff ff ff       	jmpq   400770 <.plt>

00000000004007a0 <printf@plt>:
  4007a0:	ff 25 82 18 20 00    	jmpq   *0x201882(%rip)        # 602028 <printf@GLIBC_2.2.5>
  4007a6:	68 02 00 00 00       	pushq  $0x2
  4007ab:	e9 c0 ff ff ff       	jmpq   400770 <.plt>

00000000004007b0 <fgets@plt>:
  4007b0:	ff 25 7a 18 20 00    	jmpq   *0x20187a(%rip)        # 602030 <fgets@GLIBC_2.2.5>
  4007b6:	68 03 00 00 00       	pushq  $0x3
  4007bb:	e9 b0 ff ff ff       	jmpq   400770 <.plt>

00000000004007c0 <calloc@plt>:
  4007c0:	ff 25 72 18 20 00    	jmpq   *0x201872(%rip)        # 602038 <calloc@GLIBC_2.2.5>
  4007c6:	68 04 00 00 00       	pushq  $0x4
  4007cb:	e9 a0 ff ff ff       	jmpq   400770 <.plt>

00000000004007d0 <putc@plt>:
  4007d0:	ff 25 6a 18 20 00    	jmpq   *0x20186a(%rip)        # 602040 <putc@GLIBC_2.2.5>
  4007d6:	68 05 00 00 00       	pushq  $0x5
  4007db:	e9 90 ff ff ff       	jmpq   400770 <.plt>

00000000004007e0 <__monstartup@plt>:
  4007e0:	ff 25 62 18 20 00    	jmpq   *0x201862(%rip)        # 602048 <__monstartup@GLIBC_2.2.5>
  4007e6:	68 06 00 00 00       	pushq  $0x6
  4007eb:	e9 80 ff ff ff       	jmpq   400770 <.plt>

00000000004007f0 <strtol@plt>:
  4007f0:	ff 25 5a 18 20 00    	jmpq   *0x20185a(%rip)        # 602050 <strtol@GLIBC_2.2.5>
  4007f6:	68 07 00 00 00       	pushq  $0x7
  4007fb:	e9 70 ff ff ff       	jmpq   400770 <.plt>

0000000000400800 <malloc@plt>:
  400800:	ff 25 52 18 20 00    	jmpq   *0x201852(%rip)        # 602058 <malloc@GLIBC_2.2.5>
  400806:	68 08 00 00 00       	pushq  $0x8
  40080b:	e9 60 ff ff ff       	jmpq   400770 <.plt>

0000000000400810 <mcount@plt>:
  400810:	ff 25 4a 18 20 00    	jmpq   *0x20184a(%rip)        # 602060 <mcount@GLIBC_2.2.5>
  400816:	68 09 00 00 00       	pushq  $0x9
  40081b:	e9 50 ff ff ff       	jmpq   400770 <.plt>

0000000000400820 <__cxa_atexit@plt>:
  400820:	ff 25 42 18 20 00    	jmpq   *0x201842(%rip)        # 602068 <__cxa_atexit@GLIBC_2.2.5>
  400826:	68 0a 00 00 00       	pushq  $0xa
  40082b:	e9 40 ff ff ff       	jmpq   400770 <.plt>

0000000000400830 <rand@plt>:
  400830:	ff 25 3a 18 20 00    	jmpq   *0x20183a(%rip)        # 602070 <rand@GLIBC_2.2.5>
  400836:	68 0b 00 00 00       	pushq  $0xb
  40083b:	e9 30 ff ff ff       	jmpq   400770 <.plt>

Disassembly of section .text:

0000000000400840 <main>:
  400840:	55                   	push   %rbp
  400841:	48 89 e5             	mov    %rsp,%rbp
  400844:	41 55                	push   %r13
  400846:	41 54                	push   %r12
  400848:	53                   	push   %rbx
  400849:	48 83 ec 08          	sub    $0x8,%rsp
  40084d:	e8 be ff ff ff       	callq  400810 <mcount@plt>
  400852:	ba 00 00 10 00       	mov    $0x100000,%edx
  400857:	be 01 00 00 00       	mov    $0x1,%esi
  40085c:	bf e2 0f 40 00       	mov    $0x400fe2,%edi
  400861:	e8 fa 01 00 00       	callq  400a60 <obtainIntInRange>
  400866:	ba 10 00 00 00       	mov    $0x10,%edx
  40086b:	be 01 00 00 00       	mov    $0x1,%esi
  400870:	bf f4 0f 40 00       	mov    $0x400ff4,%edi
  400875:	89 c3                	mov    %eax,%ebx
  400877:	e8 e4 01 00 00       	callq  400a60 <obtainIntInRange>
  40087c:	ba 02 00 00 00       	mov    $0x2,%edx
  400881:	be 01 00 00 00       	mov    $0x1,%esi
  400886:	bf 10 10 40 00       	mov    $0x401010,%edi
  40088b:	89 05 0f 18 20 00    	mov    %eax,0x20180f(%rip)        # 6020a0 <strLen>
  400891:	e8 ca 01 00 00       	callq  400a60 <obtainIntInRange>
  400896:	89 df                	mov    %ebx,%edi
  400898:	41 89 c5             	mov    %eax,%r13d
  40089b:	e8 40 02 00 00       	callq  400ae0 <generateStringArray>
  4008a0:	49 89 c4             	mov    %rax,%r12
  4008a3:	41 83 fd 01          	cmp    $0x1,%r13d
  4008a7:	74 33                	je     4008dc <main+0x9c>
  4008a9:	41 83 fd 02          	cmp    $0x2,%r13d
  4008ad:	75 0c                	jne    4008bb <main+0x7b>
  4008af:	48 89 c7             	mov    %rax,%rdi
  4008b2:	89 de                	mov    %ebx,%esi
  4008b4:	31 c0                	xor    %eax,%eax
  4008b6:	e8 35 06 00 00       	callq  400ef0 <quickSort>
  4008bb:	89 de                	mov    %ebx,%esi
  4008bd:	4c 89 e7             	mov    %r12,%rdi
  4008c0:	e8 bb 02 00 00       	callq  400b80 <print>
  4008c5:	89 de                	mov    %ebx,%esi
  4008c7:	4c 89 e7             	mov    %r12,%rdi
  4008ca:	e8 31 03 00 00       	callq  400c00 <releaseMem>
  4008cf:	48 83 c4 08          	add    $0x8,%rsp
  4008d3:	31 c0                	xor    %eax,%eax
  4008d5:	5b                   	pop    %rbx
  4008d6:	41 5c                	pop    %r12
  4008d8:	41 5d                	pop    %r13
  4008da:	5d                   	pop    %rbp
  4008db:	c3                   	retq   
  4008dc:	48 89 c7             	mov    %rax,%rdi
  4008df:	89 de                	mov    %ebx,%esi
  4008e1:	31 c0                	xor    %eax,%eax
  4008e3:	e8 68 03 00 00       	callq  400c50 <insertionSort>
  4008e8:	eb d1                	jmp    4008bb <main+0x7b>

00000000004008ea <.annobin_atexit.c.hot>:
  4008ea:	66 0f 1f 44 00 00    	nopw   0x0(%rax,%rax,1)

00000000004008f0 <_start>:
  4008f0:	f3 0f 1e fa          	endbr64 
  4008f4:	31 ed                	xor    %ebp,%ebp
  4008f6:	49 89 d1             	mov    %rdx,%r9
  4008f9:	5e                   	pop    %rsi
  4008fa:	48 89 e2             	mov    %rsp,%rdx
  4008fd:	48 83 e4 f0          	and    $0xfffffffffffffff0,%rsp
  400901:	50                   	push   %rax
  400902:	54                   	push   %rsp
  400903:	49 c7 c0 80 0f 40 00 	mov    $0x400f80,%r8
  40090a:	48 c7 c1 10 0f 40 00 	mov    $0x400f10,%rcx
  400911:	48 c7 c7 40 08 40 00 	mov    $0x400840,%rdi
  400918:	ff 15 d2 16 20 00    	callq  *0x2016d2(%rip)        # 601ff0 <__libc_start_main@GLIBC_2.2.5>
  40091e:	f4                   	hlt    

000000000040091f <.annobin_gmon_start.c_end>:
  40091f:	90                   	nop

0000000000400920 <__gmon_start__>:
  400920:	f3 0f 1e fa          	endbr64 
  400924:	8b 05 6e 17 20 00    	mov    0x20176e(%rip),%eax        # 602098 <called.5066>
  40092a:	85 c0                	test   %eax,%eax
  40092c:	74 02                	je     400930 <__gmon_start__+0x10>
  40092e:	c3                   	retq   
  40092f:	90                   	nop
  400930:	48 83 ec 08          	sub    $0x8,%rsp
  400934:	48 c7 c7 f0 08 40 00 	mov    $0x4008f0,%rdi
  40093b:	48 c7 c6 b1 0f 40 00 	mov    $0x400fb1,%rsi
  400942:	c7 05 4c 17 20 00 01 	movl   $0x1,0x20174c(%rip)        # 602098 <called.5066>
  400949:	00 00 00 
  40094c:	e8 8f fe ff ff       	callq  4007e0 <__monstartup@plt>
  400951:	48 8b 3d 90 16 20 00 	mov    0x201690(%rip),%rdi        # 601fe8 <_mcleanup@GLIBC_2.2.5>
  400958:	48 83 c4 08          	add    $0x8,%rsp
  40095c:	e9 2f 06 00 00       	jmpq   400f90 <atexit>

0000000000400961 <.annobin___gmon_start__.end>:
  400961:	66 2e 0f 1f 84 00 00 	nopw   %cs:0x0(%rax,%rax,1)
  400968:	00 00 00 
  40096b:	0f 1f 44 00 00       	nopl   0x0(%rax,%rax,1)

0000000000400970 <_dl_relocate_static_pie>:
  400970:	f3 0f 1e fa          	endbr64 
  400974:	c3                   	retq   

0000000000400975 <.annobin__dl_relocate_static_pie.end>:
  400975:	66 2e 0f 1f 84 00 00 	nopw   %cs:0x0(%rax,%rax,1)
  40097c:	00 00 00 
  40097f:	90                   	nop

0000000000400980 <deregister_tm_clones>:
  400980:	48 8d 3d f9 16 20 00 	lea    0x2016f9(%rip),%rdi        # 602080 <stdout@@GLIBC_2.2.5>
  400987:	48 8d 05 f2 16 20 00 	lea    0x2016f2(%rip),%rax        # 602080 <stdout@@GLIBC_2.2.5>
  40098e:	48 39 f8             	cmp    %rdi,%rax
  400991:	74 15                	je     4009a8 <deregister_tm_clones+0x28>
  400993:	48 8b 05 46 16 20 00 	mov    0x201646(%rip),%rax        # 601fe0 <_ITM_deregisterTMCloneTable@Base>
  40099a:	48 85 c0             	test   %rax,%rax
  40099d:	74 09                	je     4009a8 <deregister_tm_clones+0x28>
  40099f:	ff e0                	jmpq   *%rax
  4009a1:	0f 1f 80 00 00 00 00 	nopl   0x0(%rax)
  4009a8:	c3                   	retq   
  4009a9:	0f 1f 80 00 00 00 00 	nopl   0x0(%rax)

00000000004009b0 <register_tm_clones>:
  4009b0:	48 8d 3d c9 16 20 00 	lea    0x2016c9(%rip),%rdi        # 602080 <stdout@@GLIBC_2.2.5>
  4009b7:	48 8d 35 c2 16 20 00 	lea    0x2016c2(%rip),%rsi        # 602080 <stdout@@GLIBC_2.2.5>
  4009be:	48 29 fe             	sub    %rdi,%rsi
  4009c1:	48 c1 fe 03          	sar    $0x3,%rsi
  4009c5:	48 89 f0             	mov    %rsi,%rax
  4009c8:	48 c1 e8 3f          	shr    $0x3f,%rax
  4009cc:	48 01 c6             	add    %rax,%rsi
  4009cf:	48 d1 fe             	sar    %rsi
  4009d2:	74 14                	je     4009e8 <register_tm_clones+0x38>
  4009d4:	48 8b 05 1d 16 20 00 	mov    0x20161d(%rip),%rax        # 601ff8 <_ITM_registerTMCloneTable@Base>
  4009db:	48 85 c0             	test   %rax,%rax
  4009de:	74 08                	je     4009e8 <register_tm_clones+0x38>
  4009e0:	ff e0                	jmpq   *%rax
  4009e2:	66 0f 1f 44 00 00    	nopw   0x0(%rax,%rax,1)
  4009e8:	c3                   	retq   
  4009e9:	0f 1f 80 00 00 00 00 	nopl   0x0(%rax)

00000000004009f0 <__do_global_dtors_aux>:
  4009f0:	f3 0f 1e fa          	endbr64 
  4009f4:	80 3d a1 16 20 00 00 	cmpb   $0x0,0x2016a1(%rip)        # 60209c <completed.7307>
  4009fb:	75 13                	jne    400a10 <__do_global_dtors_aux+0x20>
  4009fd:	55                   	push   %rbp
  4009fe:	48 89 e5             	mov    %rsp,%rbp
  400a01:	e8 7a ff ff ff       	callq  400980 <deregister_tm_clones>
  400a06:	c6 05 8f 16 20 00 01 	movb   $0x1,0x20168f(%rip)        # 60209c <completed.7307>
  400a0d:	5d                   	pop    %rbp
  400a0e:	c3                   	retq   
  400a0f:	90                   	nop
  400a10:	c3                   	retq   
  400a11:	66 66 2e 0f 1f 84 00 	data16 nopw %cs:0x0(%rax,%rax,1)
  400a18:	00 00 00 00 
  400a1c:	0f 1f 40 00          	nopl   0x0(%rax)

0000000000400a20 <frame_dummy>:
  400a20:	f3 0f 1e fa          	endbr64 
  400a24:	eb 8a                	jmp    4009b0 <register_tm_clones>
  400a26:	66 2e 0f 1f 84 00 00 	nopw   %cs:0x0(%rax,%rax,1)
  400a2d:	00 00 00 

0000000000400a30 <swap>:
  400a30:	55                   	push   %rbp
  400a31:	48 89 e5             	mov    %rsp,%rbp
  400a34:	e8 d7 fd ff ff       	callq  400810 <mcount@plt>
  400a39:	48 63 f6             	movslq %esi,%rsi
  400a3c:	48 63 d2             	movslq %edx,%rdx
  400a3f:	48 8d 0c f7          	lea    (%rdi,%rsi,8),%rcx
  400a43:	48 8d 04 d7          	lea    (%rdi,%rdx,8),%rax
  400a47:	48 8b 31             	mov    (%rcx),%rsi
  400a4a:	48 8b 10             	mov    (%rax),%rdx
  400a4d:	48 89 11             	mov    %rdx,(%rcx)
  400a50:	48 89 30             	mov    %rsi,(%rax)
  400a53:	5d                   	pop    %rbp
  400a54:	c3                   	retq   
  400a55:	66 66 2e 0f 1f 84 00 	data16 nopw %cs:0x0(%rax,%rax,1)
  400a5c:	00 00 00 00 

0000000000400a60 <obtainIntInRange>:
  400a60:	55                   	push   %rbp
  400a61:	48 89 e5             	mov    %rsp,%rbp
  400a64:	41 55                	push   %r13
  400a66:	41 54                	push   %r12
  400a68:	53                   	push   %rbx
  400a69:	48 81 ec 08 01 00 00 	sub    $0x108,%rsp
  400a70:	e8 9b fd ff ff       	callq  400810 <mcount@plt>
  400a75:	49 89 fd             	mov    %rdi,%r13
  400a78:	89 f3                	mov    %esi,%ebx
  400a7a:	41 89 d4             	mov    %edx,%r12d
  400a7d:	0f 1f 00             	nopl   (%rax)
  400a80:	44 89 e1             	mov    %r12d,%ecx
  400a83:	89 da                	mov    %ebx,%edx
  400a85:	4c 89 ee             	mov    %r13,%rsi
  400a88:	bf c8 0f 40 00       	mov    $0x400fc8,%edi
  400a8d:	31 c0                	xor    %eax,%eax
  400a8f:	e8 0c fd ff ff       	callq  4007a0 <printf@plt>
  400a94:	48 8b 15 f5 15 20 00 	mov    0x2015f5(%rip),%rdx        # 602090 <stdin@@GLIBC_2.2.5>
  400a9b:	be 00 01 00 00       	mov    $0x100,%esi
  400aa0:	48 8d bd e0 fe ff ff 	lea    -0x120(%rbp),%rdi
  400aa7:	e8 04 fd ff ff       	callq  4007b0 <fgets@plt>
  400aac:	31 f6                	xor    %esi,%esi
  400aae:	ba 0a 00 00 00       	mov    $0xa,%edx
  400ab3:	48 8d bd e0 fe ff ff 	lea    -0x120(%rbp),%rdi
  400aba:	e8 31 fd ff ff       	callq  4007f0 <strtol@plt>
  400abf:	39 c3                	cmp    %eax,%ebx
  400ac1:	7f bd                	jg     400a80 <obtainIntInRange+0x20>
  400ac3:	41 39 c4             	cmp    %eax,%r12d
  400ac6:	7c b8                	jl     400a80 <obtainIntInRange+0x20>
  400ac8:	48 81 c4 08 01 00 00 	add    $0x108,%rsp
  400acf:	5b                   	pop    %rbx
  400ad0:	41 5c                	pop    %r12
  400ad2:	41 5d                	pop    %r13
  400ad4:	5d                   	pop    %rbp
  400ad5:	c3                   	retq   
  400ad6:	66 2e 0f 1f 84 00 00 	nopw   %cs:0x0(%rax,%rax,1)
  400add:	00 00 00 

0000000000400ae0 <generateStringArray>:
  400ae0:	55                   	push   %rbp
  400ae1:	48 89 e5             	mov    %rsp,%rbp
  400ae4:	41 56                	push   %r14
  400ae6:	41 55                	push   %r13
  400ae8:	41 54                	push   %r12
  400aea:	53                   	push   %rbx
  400aeb:	e8 20 fd ff ff       	callq  400810 <mcount@plt>
  400af0:	be 08 00 00 00       	mov    $0x8,%esi
  400af5:	48 63 ff             	movslq %edi,%rdi
  400af8:	48 89 fb             	mov    %rdi,%rbx
  400afb:	e8 c0 fc ff ff       	callq  4007c0 <calloc@plt>
  400b00:	49 89 c4             	mov    %rax,%r12
  400b03:	85 db                	test   %ebx,%ebx
  400b05:	7e 61                	jle    400b68 <generateStringArray+0x88>
  400b07:	49 89 c6             	mov    %rax,%r14
  400b0a:	8d 43 ff             	lea    -0x1(%rbx),%eax
  400b0d:	49 8d 5c c4 08       	lea    0x8(%r12,%rax,8),%rbx
  400b12:	66 0f 1f 44 00 00    	nopw   0x0(%rax,%rax,1)
  400b18:	48 63 3d 81 15 20 00 	movslq 0x201581(%rip),%rdi        # 6020a0 <strLen>
  400b1f:	49 89 fd             	mov    %rdi,%r13
  400b22:	e8 d9 fc ff ff       	callq  400800 <malloc@plt>
  400b27:	49 89 06             	mov    %rax,(%r14)
  400b2a:	45 85 ed             	test   %r13d,%r13d
  400b2d:	7e 30                	jle    400b5f <generateStringArray+0x7f>
  400b2f:	45 31 ed             	xor    %r13d,%r13d
  400b32:	66 0f 1f 44 00 00    	nopw   0x0(%rax,%rax,1)
  400b38:	e8 f3 fc ff ff       	callq  400830 <rand@plt>
  400b3d:	49 8b 0e             	mov    (%r14),%rcx
  400b40:	99                   	cltd   
  400b41:	c1 ea 1c             	shr    $0x1c,%edx
  400b44:	01 d0                	add    %edx,%eax
  400b46:	83 e0 0f             	and    $0xf,%eax
  400b49:	29 d0                	sub    %edx,%eax
  400b4b:	83 c0 41             	add    $0x41,%eax
  400b4e:	42 88 04 29          	mov    %al,(%rcx,%r13,1)
  400b52:	49 83 c5 01          	add    $0x1,%r13
  400b56:	44 39 2d 43 15 20 00 	cmp    %r13d,0x201543(%rip)        # 6020a0 <strLen>
  400b5d:	7f d9                	jg     400b38 <generateStringArray+0x58>
  400b5f:	49 83 c6 08          	add    $0x8,%r14
  400b63:	49 39 de             	cmp    %rbx,%r14
  400b66:	75 b0                	jne    400b18 <generateStringArray+0x38>
  400b68:	5b                   	pop    %rbx
  400b69:	4c 89 e0             	mov    %r12,%rax
  400b6c:	41 5c                	pop    %r12
  400b6e:	41 5d                	pop    %r13
  400b70:	41 5e                	pop    %r14
  400b72:	5d                   	pop    %rbp
  400b73:	c3                   	retq   
  400b74:	66 66 2e 0f 1f 84 00 	data16 nopw %cs:0x0(%rax,%rax,1)
  400b7b:	00 00 00 00 
  400b7f:	90                   	nop

0000000000400b80 <print>:
  400b80:	55                   	push   %rbp
  400b81:	48 89 e5             	mov    %rsp,%rbp
  400b84:	41 55                	push   %r13
  400b86:	41 54                	push   %r12
  400b88:	53                   	push   %rbx
  400b89:	48 83 ec 08          	sub    $0x8,%rsp
  400b8d:	e8 7e fc ff ff       	callq  400810 <mcount@plt>
  400b92:	85 f6                	test   %esi,%esi
  400b94:	7e 5c                	jle    400bf2 <print+0x72>
  400b96:	8d 46 ff             	lea    -0x1(%rsi),%eax
  400b99:	49 89 fc             	mov    %rdi,%r12
  400b9c:	4c 8d 6c c7 08       	lea    0x8(%rdi,%rax,8),%r13
  400ba1:	0f 1f 80 00 00 00 00 	nopl   0x0(%rax)
  400ba8:	8b 05 f2 14 20 00    	mov    0x2014f2(%rip),%eax        # 6020a0 <strLen>
  400bae:	31 db                	xor    %ebx,%ebx
  400bb0:	85 c0                	test   %eax,%eax
  400bb2:	7e 24                	jle    400bd8 <print+0x58>
  400bb4:	0f 1f 40 00          	nopl   0x0(%rax)
  400bb8:	49 8b 04 24          	mov    (%r12),%rax
  400bbc:	48 8b 35 bd 14 20 00 	mov    0x2014bd(%rip),%rsi        # 602080 <stdout@@GLIBC_2.2.5>
  400bc3:	0f be 3c 18          	movsbl (%rax,%rbx,1),%edi
  400bc7:	48 83 c3 01          	add    $0x1,%rbx
  400bcb:	e8 00 fc ff ff       	callq  4007d0 <putc@plt>
  400bd0:	39 1d ca 14 20 00    	cmp    %ebx,0x2014ca(%rip)        # 6020a0 <strLen>
  400bd6:	7f e0                	jg     400bb8 <print+0x38>
  400bd8:	48 8b 35 a1 14 20 00 	mov    0x2014a1(%rip),%rsi        # 602080 <stdout@@GLIBC_2.2.5>
  400bdf:	bf 0a 00 00 00       	mov    $0xa,%edi
  400be4:	49 83 c4 08          	add    $0x8,%r12
  400be8:	e8 e3 fb ff ff       	callq  4007d0 <putc@plt>
  400bed:	4d 39 ec             	cmp    %r13,%r12
  400bf0:	75 b6                	jne    400ba8 <print+0x28>
  400bf2:	48 83 c4 08          	add    $0x8,%rsp
  400bf6:	5b                   	pop    %rbx
  400bf7:	41 5c                	pop    %r12
  400bf9:	41 5d                	pop    %r13
  400bfb:	5d                   	pop    %rbp
  400bfc:	c3                   	retq   
  400bfd:	0f 1f 00             	nopl   (%rax)

0000000000400c00 <releaseMem>:
  400c00:	55                   	push   %rbp
  400c01:	48 89 e5             	mov    %rsp,%rbp
  400c04:	41 55                	push   %r13
  400c06:	41 54                	push   %r12
  400c08:	53                   	push   %rbx
  400c09:	48 83 ec 08          	sub    $0x8,%rsp
  400c0d:	e8 fe fb ff ff       	callq  400810 <mcount@plt>
  400c12:	49 89 fd             	mov    %rdi,%r13
  400c15:	85 f6                	test   %esi,%esi
  400c17:	7e 20                	jle    400c39 <releaseMem+0x39>
  400c19:	8d 46 ff             	lea    -0x1(%rsi),%eax
  400c1c:	48 89 fb             	mov    %rdi,%rbx
  400c1f:	4c 8d 64 c7 08       	lea    0x8(%rdi,%rax,8),%r12
  400c24:	0f 1f 40 00          	nopl   0x0(%rax)
  400c28:	48 8b 3b             	mov    (%rbx),%rdi
  400c2b:	48 83 c3 08          	add    $0x8,%rbx
  400c2f:	e8 4c fb ff ff       	callq  400780 <free@plt>
  400c34:	4c 39 e3             	cmp    %r12,%rbx
  400c37:	75 ef                	jne    400c28 <releaseMem+0x28>
  400c39:	48 83 c4 08          	add    $0x8,%rsp
  400c3d:	4c 89 ef             	mov    %r13,%rdi
  400c40:	5b                   	pop    %rbx
  400c41:	41 5c                	pop    %r12
  400c43:	41 5d                	pop    %r13
  400c45:	5d                   	pop    %rbp
  400c46:	e9 35 fb ff ff       	jmpq   400780 <free@plt>
  400c4b:	0f 1f 44 00 00       	nopl   0x0(%rax,%rax,1)

0000000000400c50 <insertionSort>:
  400c50:	55                   	push   %rbp
  400c51:	48 89 e5             	mov    %rsp,%rbp
  400c54:	41 57                	push   %r15
  400c56:	41 56                	push   %r14
  400c58:	41 55                	push   %r13
  400c5a:	41 54                	push   %r12
  400c5c:	53                   	push   %rbx
  400c5d:	48 83 ec 28          	sub    $0x28,%rsp
  400c61:	e8 aa fb ff ff       	callq  400810 <mcount@plt>
  400c66:	31 db                	xor    %ebx,%ebx
  400c68:	41 89 dd             	mov    %ebx,%r13d
  400c6b:	89 f0                	mov    %esi,%eax
  400c6d:	8d 4e ff             	lea    -0x1(%rsi),%ecx
  400c70:	49 89 ff             	mov    %rdi,%r15
  400c73:	89 75 c0             	mov    %esi,-0x40(%rbp)
  400c76:	83 e8 02             	sub    $0x2,%eax
  400c79:	89 4d c4             	mov    %ecx,-0x3c(%rbp)
  400c7c:	89 45 bc             	mov    %eax,-0x44(%rbp)
  400c7f:	39 5d c4             	cmp    %ebx,-0x3c(%rbp)
  400c82:	7e 69                	jle    400ced <insertionSort+0x9d>
  400c84:	0f 1f 40 00          	nopl   0x0(%rax)
  400c88:	8d 43 01             	lea    0x1(%rbx),%eax
  400c8b:	39 45 c0             	cmp    %eax,-0x40(%rbp)
  400c8e:	48 8d 43 01          	lea    0x1(%rbx),%rax
  400c92:	48 89 45 c8          	mov    %rax,-0x38(%rbp)
  400c96:	7e 49                	jle    400ce1 <insertionSort+0x91>
  400c98:	49 89 c6             	mov    %rax,%r14
  400c9b:	8b 45 bc             	mov    -0x44(%rbp),%eax
  400c9e:	44 29 e8             	sub    %r13d,%eax
  400ca1:	4c 8d 64 03 02       	lea    0x2(%rbx,%rax,1),%r12
  400ca6:	66 2e 0f 1f 84 00 00 	nopw   %cs:0x0(%rax,%rax,1)
  400cad:	00 00 00 
  400cb0:	48 63 15 e9 13 20 00 	movslq 0x2013e9(%rip),%rdx        # 6020a0 <strLen>
  400cb7:	4b 8b 34 f7          	mov    (%r15,%r14,8),%rsi
  400cbb:	49 8b 3c df          	mov    (%r15,%rbx,8),%rdi
  400cbf:	e8 cc fa ff ff       	callq  400790 <strncmp@plt>
  400cc4:	85 c0                	test   %eax,%eax
  400cc6:	7e 10                	jle    400cd8 <insertionSort+0x88>
  400cc8:	44 89 f2             	mov    %r14d,%edx
  400ccb:	44 89 ee             	mov    %r13d,%esi
  400cce:	4c 89 ff             	mov    %r15,%rdi
  400cd1:	31 c0                	xor    %eax,%eax
  400cd3:	e8 58 fd ff ff       	callq  400a30 <swap>
  400cd8:	49 83 c6 01          	add    $0x1,%r14
  400cdc:	4d 39 f4             	cmp    %r14,%r12
  400cdf:	75 cf                	jne    400cb0 <insertionSort+0x60>
  400ce1:	48 8b 5d c8          	mov    -0x38(%rbp),%rbx
  400ce5:	41 89 dd             	mov    %ebx,%r13d
  400ce8:	39 5d c4             	cmp    %ebx,-0x3c(%rbp)
  400ceb:	7f 9b                	jg     400c88 <insertionSort+0x38>
  400ced:	48 83 c4 28          	add    $0x28,%rsp
  400cf1:	5b                   	pop    %rbx
  400cf2:	41 5c                	pop    %r12
  400cf4:	41 5d                	pop    %r13
  400cf6:	41 5e                	pop    %r14
  400cf8:	41 5f                	pop    %r15
  400cfa:	5d                   	pop    %rbp
  400cfb:	c3                   	retq   
  400cfc:	0f 1f 40 00          	nopl   0x0(%rax)

0000000000400d00 <partition>:
  400d00:	55                   	push   %rbp
  400d01:	48 89 e5             	mov    %rsp,%rbp
  400d04:	41 57                	push   %r15
  400d06:	41 56                	push   %r14
  400d08:	41 55                	push   %r13
  400d0a:	41 54                	push   %r12
  400d0c:	53                   	push   %rbx
  400d0d:	48 83 ec 18          	sub    $0x18,%rsp
  400d11:	e8 fa fa ff ff       	callq  400810 <mcount@plt>
  400d16:	4c 63 25 83 13 20 00 	movslq 0x201383(%rip),%r12        # 6020a0 <strLen>
  400d1d:	48 63 c2             	movslq %edx,%rax
  400d20:	49 89 fd             	mov    %rdi,%r13
  400d23:	8d 59 01             	lea    0x1(%rcx),%ebx
  400d26:	49 89 f6             	mov    %rsi,%r14
  400d29:	48 89 45 c8          	mov    %rax,-0x38(%rbp)
  400d2d:	0f 1f 00             	nopl   (%rax)
  400d30:	48 8b 45 c8          	mov    -0x38(%rbp),%rax
  400d34:	4c 89 e2             	mov    %r12,%rdx
  400d37:	4c 89 f6             	mov    %r14,%rsi
  400d3a:	49 8b 7c c5 00       	mov    0x0(%r13,%rax,8),%rdi
  400d3f:	89 45 c4             	mov    %eax,-0x3c(%rbp)
  400d42:	e8 49 fa ff ff       	callq  400790 <strncmp@plt>
  400d47:	85 c0                	test   %eax,%eax
  400d49:	78 43                	js     400d8e <partition+0x8e>
  400d4b:	83 eb 01             	sub    $0x1,%ebx
  400d4e:	4c 63 fb             	movslq %ebx,%r15
  400d51:	0f 1f 80 00 00 00 00 	nopl   0x0(%rax)
  400d58:	4b 8b 7c fd 00       	mov    0x0(%r13,%r15,8),%rdi
  400d5d:	4c 89 e2             	mov    %r12,%rdx
  400d60:	4c 89 f6             	mov    %r14,%rsi
  400d63:	44 89 fb             	mov    %r15d,%ebx
  400d66:	49 83 ef 01          	sub    $0x1,%r15
  400d6a:	e8 21 fa ff ff       	callq  400790 <strncmp@plt>
  400d6f:	85 c0                	test   %eax,%eax
  400d71:	7f e5                	jg     400d58 <partition+0x58>
  400d73:	3b 5d c8             	cmp    -0x38(%rbp),%ebx
  400d76:	7e 20                	jle    400d98 <partition+0x98>
  400d78:	8b 75 c4             	mov    -0x3c(%rbp),%esi
  400d7b:	89 da                	mov    %ebx,%edx
  400d7d:	4c 89 ef             	mov    %r13,%rdi
  400d80:	31 c0                	xor    %eax,%eax
  400d82:	e8 a9 fc ff ff       	callq  400a30 <swap>
  400d87:	4c 63 25 12 13 20 00 	movslq 0x201312(%rip),%r12        # 6020a0 <strLen>
  400d8e:	48 83 45 c8 01       	addq   $0x1,-0x38(%rbp)
  400d93:	eb 9b                	jmp    400d30 <partition+0x30>
  400d95:	0f 1f 00             	nopl   (%rax)
  400d98:	48 83 c4 18          	add    $0x18,%rsp
  400d9c:	89 d8                	mov    %ebx,%eax
  400d9e:	5b                   	pop    %rbx
  400d9f:	41 5c                	pop    %r12
  400da1:	41 5d                	pop    %r13
  400da3:	41 5e                	pop    %r14
  400da5:	41 5f                	pop    %r15
  400da7:	5d                   	pop    %rbp
  400da8:	c3                   	retq   
  400da9:	0f 1f 80 00 00 00 00 	nopl   0x0(%rax)

0000000000400db0 <pivot>:
  400db0:	55                   	push   %rbp
  400db1:	48 89 e5             	mov    %rsp,%rbp
  400db4:	41 57                	push   %r15
  400db6:	41 56                	push   %r14
  400db8:	41 55                	push   %r13
  400dba:	41 54                	push   %r12
  400dbc:	53                   	push   %rbx
  400dbd:	48 83 ec 18          	sub    $0x18,%rsp
  400dc1:	e8 4a fa ff ff       	callq  400810 <mcount@plt>
  400dc6:	48 63 1d d3 12 20 00 	movslq 0x2012d3(%rip),%rbx        # 6020a0 <strLen>
  400dcd:	48 63 c6             	movslq %esi,%rax
  400dd0:	41 89 d5             	mov    %edx,%r13d
  400dd3:	4c 8b 34 c7          	mov    (%rdi,%rax,8),%r14
  400dd7:	49 89 c7             	mov    %rax,%r15
  400dda:	8d 04 10             	lea    (%rax,%rdx,1),%eax
  400ddd:	89 c1                	mov    %eax,%ecx
  400ddf:	c1 e9 1f             	shr    $0x1f,%ecx
  400de2:	01 c1                	add    %eax,%ecx
  400de4:	d1 f9                	sar    %ecx
  400de6:	48 63 c1             	movslq %ecx,%rax
  400de9:	89 4d c0             	mov    %ecx,-0x40(%rbp)
  400dec:	4c 8b 24 c7          	mov    (%rdi,%rax,8),%r12
  400df0:	48 63 c2             	movslq %edx,%rax
  400df3:	48 89 da             	mov    %rbx,%rdx
  400df6:	48 8b 04 c7          	mov    (%rdi,%rax,8),%rax
  400dfa:	4c 89 f7             	mov    %r14,%rdi
  400dfd:	4c 89 e6             	mov    %r12,%rsi
  400e00:	48 89 45 c8          	mov    %rax,-0x38(%rbp)
  400e04:	e8 87 f9 ff ff       	callq  400790 <strncmp@plt>
  400e09:	48 8b 75 c8          	mov    -0x38(%rbp),%rsi
  400e0d:	48 89 da             	mov    %rbx,%rdx
  400e10:	4c 89 e7             	mov    %r12,%rdi
  400e13:	89 45 c4             	mov    %eax,-0x3c(%rbp)
  400e16:	e8 75 f9 ff ff       	callq  400790 <strncmp@plt>
  400e1b:	44 8b 4d c4          	mov    -0x3c(%rbp),%r9d
  400e1f:	8b 4d c0             	mov    -0x40(%rbp),%ecx
  400e22:	45 85 c9             	test   %r9d,%r9d
  400e25:	7e 59                	jle    400e80 <pivot+0xd0>
  400e27:	85 c0                	test   %eax,%eax
  400e29:	79 2e                	jns    400e59 <pivot+0xa9>
  400e2b:	4c 89 e7             	mov    %r12,%rdi
  400e2e:	48 89 da             	mov    %rbx,%rdx
  400e31:	4c 89 f6             	mov    %r14,%rsi
  400e34:	e8 57 f9 ff ff       	callq  400790 <strncmp@plt>
  400e39:	48 8b 75 c8          	mov    -0x38(%rbp),%rsi
  400e3d:	48 89 da             	mov    %rbx,%rdx
  400e40:	4c 89 f7             	mov    %r14,%rdi
  400e43:	41 89 c4             	mov    %eax,%r12d
  400e46:	e8 45 f9 ff ff       	callq  400790 <strncmp@plt>
  400e4b:	45 85 e4             	test   %r12d,%r12d
  400e4e:	7e 20                	jle    400e70 <pivot+0xc0>
  400e50:	85 c0                	test   %eax,%eax
  400e52:	44 89 f9             	mov    %r15d,%ecx
  400e55:	41 0f 48 cd          	cmovs  %r13d,%ecx
  400e59:	48 83 c4 18          	add    $0x18,%rsp
  400e5d:	89 c8                	mov    %ecx,%eax
  400e5f:	5b                   	pop    %rbx
  400e60:	41 5c                	pop    %r12
  400e62:	41 5d                	pop    %r13
  400e64:	41 5e                	pop    %r14
  400e66:	41 5f                	pop    %r15
  400e68:	5d                   	pop    %rbp
  400e69:	c3                   	retq   
  400e6a:	66 0f 1f 44 00 00    	nopw   0x0(%rax,%rax,1)
  400e70:	44 89 f9             	mov    %r15d,%ecx
  400e73:	85 c0                	test   %eax,%eax
  400e75:	7e e2                	jle    400e59 <pivot+0xa9>
  400e77:	45 85 e4             	test   %r12d,%r12d
  400e7a:	41 0f 45 cd          	cmovne %r13d,%ecx
  400e7e:	eb d9                	jmp    400e59 <pivot+0xa9>
  400e80:	85 c0                	test   %eax,%eax
  400e82:	7e d5                	jle    400e59 <pivot+0xa9>
  400e84:	45 85 c9             	test   %r9d,%r9d
  400e87:	75 a2                	jne    400e2b <pivot+0x7b>
  400e89:	eb ce                	jmp    400e59 <pivot+0xa9>
  400e8b:	0f 1f 44 00 00       	nopl   0x0(%rax,%rax,1)

0000000000400e90 <quickSort_>:
  400e90:	55                   	push   %rbp
  400e91:	48 89 e5             	mov    %rsp,%rbp
  400e94:	41 56                	push   %r14
  400e96:	41 55                	push   %r13
  400e98:	41 54                	push   %r12
  400e9a:	53                   	push   %rbx
  400e9b:	e8 70 f9 ff ff       	callq  400810 <mcount@plt>
  400ea0:	49 89 fc             	mov    %rdi,%r12
  400ea3:	89 f3                	mov    %esi,%ebx
  400ea5:	41 89 d5             	mov    %edx,%r13d
  400ea8:	39 d6                	cmp    %edx,%esi
  400eaa:	7d 38                	jge    400ee4 <quickSort_+0x54>
  400eac:	89 de                	mov    %ebx,%esi
  400eae:	44 89 ea             	mov    %r13d,%edx
  400eb1:	4c 89 e7             	mov    %r12,%rdi
  400eb4:	e8 f7 fe ff ff       	callq  400db0 <pivot>
  400eb9:	89 da                	mov    %ebx,%edx
  400ebb:	44 89 e9             	mov    %r13d,%ecx
  400ebe:	4c 89 e7             	mov    %r12,%rdi
  400ec1:	48 98                	cltq   
  400ec3:	49 8b 34 c4          	mov    (%r12,%rax,8),%rsi
  400ec7:	e8 34 fe ff ff       	callq  400d00 <partition>
  400ecc:	89 de                	mov    %ebx,%esi
  400ece:	4c 89 e7             	mov    %r12,%rdi
  400ed1:	41 89 c6             	mov    %eax,%r14d
  400ed4:	89 c2                	mov    %eax,%edx
  400ed6:	e8 b5 ff ff ff       	callq  400e90 <quickSort_>
  400edb:	41 8d 5e 01          	lea    0x1(%r14),%ebx
  400edf:	44 39 eb             	cmp    %r13d,%ebx
  400ee2:	7c c8                	jl     400eac <quickSort_+0x1c>
  400ee4:	5b                   	pop    %rbx
  400ee5:	41 5c                	pop    %r12
  400ee7:	41 5d                	pop    %r13
  400ee9:	41 5e                	pop    %r14
  400eeb:	5d                   	pop    %rbp
  400eec:	c3                   	retq   
  400eed:	0f 1f 00             	nopl   (%rax)

0000000000400ef0 <quickSort>:
  400ef0:	55                   	push   %rbp
  400ef1:	48 89 e5             	mov    %rsp,%rbp
  400ef4:	e8 17 f9 ff ff       	callq  400810 <mcount@plt>
  400ef9:	5d                   	pop    %rbp
  400efa:	8d 56 ff             	lea    -0x1(%rsi),%edx
  400efd:	31 f6                	xor    %esi,%esi
  400eff:	eb 8f                	jmp    400e90 <quickSort_>
  400f01:	66 2e 0f 1f 84 00 00 	nopw   %cs:0x0(%rax,%rax,1)
  400f08:	00 00 00 
  400f0b:	0f 1f 44 00 00       	nopl   0x0(%rax,%rax,1)

0000000000400f10 <__libc_csu_init>:
  400f10:	f3 0f 1e fa          	endbr64 
  400f14:	41 57                	push   %r15
  400f16:	49 89 d7             	mov    %rdx,%r15
  400f19:	41 56                	push   %r14
  400f1b:	49 89 f6             	mov    %rsi,%r14
  400f1e:	41 55                	push   %r13
  400f20:	41 89 fd             	mov    %edi,%r13d
  400f23:	41 54                	push   %r12
  400f25:	4c 8d 25 d4 0e 20 00 	lea    0x200ed4(%rip),%r12        # 601e00 <__frame_dummy_init_array_entry>
  400f2c:	55                   	push   %rbp
  400f2d:	48 8d 2d d4 0e 20 00 	lea    0x200ed4(%rip),%rbp        # 601e08 <__init_array_end>
  400f34:	53                   	push   %rbx
  400f35:	4c 29 e5             	sub    %r12,%rbp
  400f38:	48 83 ec 08          	sub    $0x8,%rsp
  400f3c:	e8 0f f8 ff ff       	callq  400750 <_init>
  400f41:	48 c1 fd 03          	sar    $0x3,%rbp
  400f45:	74 1f                	je     400f66 <__libc_csu_init+0x56>
  400f47:	31 db                	xor    %ebx,%ebx
  400f49:	0f 1f 80 00 00 00 00 	nopl   0x0(%rax)
  400f50:	4c 89 fa             	mov    %r15,%rdx
  400f53:	4c 89 f6             	mov    %r14,%rsi
  400f56:	44 89 ef             	mov    %r13d,%edi
  400f59:	41 ff 14 dc          	callq  *(%r12,%rbx,8)
  400f5d:	48 83 c3 01          	add    $0x1,%rbx
  400f61:	48 39 dd             	cmp    %rbx,%rbp
  400f64:	75 ea                	jne    400f50 <__libc_csu_init+0x40>
  400f66:	48 83 c4 08          	add    $0x8,%rsp
  400f6a:	5b                   	pop    %rbx
  400f6b:	5d                   	pop    %rbp
  400f6c:	41 5c                	pop    %r12
  400f6e:	41 5d                	pop    %r13
  400f70:	41 5e                	pop    %r14
  400f72:	41 5f                	pop    %r15
  400f74:	c3                   	retq   

0000000000400f75 <.annobin___libc_csu_fini.start>:
  400f75:	66 66 2e 0f 1f 84 00 	data16 nopw %cs:0x0(%rax,%rax,1)
  400f7c:	00 00 00 00 

0000000000400f80 <__libc_csu_fini>:
  400f80:	f3 0f 1e fa          	endbr64 
  400f84:	c3                   	retq   

0000000000400f85 <.annobin___libc_csu_fini.end>:
  400f85:	66 2e 0f 1f 84 00 00 	nopw   %cs:0x0(%rax,%rax,1)
  400f8c:	00 00 00 
  400f8f:	90                   	nop

0000000000400f90 <atexit>:
  400f90:	f3 0f 1e fa          	endbr64 
  400f94:	48 8b 15 25 00 00 00 	mov    0x25(%rip),%rdx        # 400fc0 <__dso_handle>
  400f9b:	31 f6                	xor    %esi,%esi
  400f9d:	e9 7e f8 ff ff       	jmpq   400820 <__cxa_atexit@plt>

Disassembly of section .fini:

0000000000400fa4 <_fini>:
  400fa4:	f3 0f 1e fa          	endbr64 
  400fa8:	48 83 ec 08          	sub    $0x8,%rsp
  400fac:	48 83 c4 08          	add    $0x8,%rsp
  400fb0:	c3                   	retq   
